(dp0
VR2a
p1
(F3.03
(F-0.28
F-0.78
F0.56
tp2
tp3
sVR2b
p4
(F2.86
(F0.22
F0.86
F0.46
tp5
tp6
sVR2c
p7
(F2.46
(F-0.33
F-0.73
F-0.6
tp8
tp9
sVR3a
p10
(F2.5
(F-0.29
F0.92
F-0.28
tp11
tp12
sVR3b
p13
(F2.89
(F-0.45
F0.83
F-0.33
tp14
tp15
sVR3c
p16
(F2.55
(F0.31
F-0.87
F-0.38
tp17
tp18
sVR3d
p19
(F2.86
(F0.45
F-0.74
F-0.5
tp20
tp21
sVR3e
p22
(F2.78
(F-0.29
F0.9
F0.32
tp23
tp24
sVR4a
p25
(F1.08
(F-0.32
F0.93
F-0.17
tp26
tp27
sVR4b
p28
(F2.16
(F-0.84
F0.41
F0.36
tp29
tp30
sVR5a
p31
(F2.41
(F-0.63
F0.73
F0.26
tp32
tp33
sVR5b
p34
(F0.57
(F-0.64
F0.6
F-0.48
tp35
tp36
sVR5c
p37
(F2.05
(F-0.56
F0.67
F0.5
tp38
tp39
sVR5d
p40
(F0.51
(F-0.62
F0.74
F0.26
tp41
tp42
sVR5e
p43
(F0.77
(F-0.23
F0.96
F-0.18
tp44
tp45
sVR6a
p46
(F1.95
(F-0.52
F0.75
F0.4
tp47
tp48
sVR6b
p49
(F1.49
(F-0.99
F-0.01
F0.12
tp50
tp51
sVF2a
p52
(F2.71
(F0.57
F-0.75
F-0.34
tp53
tp54
sVF3a
p55
(F2.55
(F0.54
F-0.79
F-0.29
tp56
tp57
sVF3b
p58
(F2.8
(F0.59
F-0.8
F0.08
tp59
tp60
sVF3c
p61
(F2.41
(F-0.68
F0.69
F-0.24
tp62
tp63
sVF4a
p64
(F2.54
(F0.52
F-0.83
F-0.21
tp65
tp66
sVF5a
p67
(F2.67
(F0.57
F-0.8
F-0.18
tp68
tp69
sVF6a
p70
(F2.67
(F0.54
F-0.81
F-0.23
tp71
tp72
sVLRa
p73
(F2.82
(F0.61
F-0.79
F0.0
tp74
tp75
sVLRb
p76
(F0.21
(F-0.78
F0.63
F0.06
tp77
tp78
sVLRc
p79
(F1.63
(F-0.56
F0.8
F-0.2
tp80
tp81
sVLRd
p82
(F2.79
(F-0.65
F0.7
F-0.3
tp83
tp84
sVLRe
p85
(F1.96
(F-0.51
F0.79
F0.35
tp86
tp87
sVLRf
p88
(F1.84
(F-0.82
F0.35
F-0.45
tp89
tp90
s.